target datalayout = "e-m:e-p270:32:32-p271:32:32-p272:64:64-i64:64-i128:128-f80:128-n8:16:32:64-S128"
target triple = "x86_64-pc-linux-gnu"

@g_ascii_table = external constant ptr, align 8

; Function Attrs: nounwind uwtable
define internal i32 @zbee_security_parse_key(ptr noundef %0, ptr noundef %1, i32 noundef %2) #0 {
  %4 = alloca i32, align 4
  %5 = alloca ptr, align 8
  %6 = alloca ptr, align 8
  %7 = alloca i32, align 4
  %8 = alloca i32, align 4
  %9 = alloca i32, align 4
  %10 = alloca i8, align 1
  %11 = alloca i32, align 4
  store ptr %0, ptr %5, align 8
  store ptr %1, ptr %6, align 8
  store i32 %2, ptr %7, align 4
  store i32 0, ptr %11, align 4
  %12 = load ptr, ptr %6, align 8
  call void @llvm.memset.p0.i64(ptr align 1 %12, i8 0, i64 16, i1 false)
  %13 = load ptr, ptr %5, align 8
  %14 = icmp eq ptr %13, null
  br i1 %14, label %15, label %16

15:                                               ; preds = %3
  store i32 0, ptr %4, align 4
  br label %133

16:                                               ; preds = %3
  %17 = load ptr, ptr %5, align 8
  %18 = getelementptr i8, ptr %17, i32 1
  store ptr %18, ptr %5, align 8
  %19 = load i8, ptr %17, align 1
  store i8 %19, ptr %10, align 1
  %20 = sext i8 %19 to i32
  %21 = icmp eq i32 %20, 34
  br i1 %21, label %22, label %26

22:                                               ; preds = %16
  store i32 1, ptr %11, align 4
  %23 = load ptr, ptr %5, align 8
  %24 = getelementptr i8, ptr %23, i32 1
  store ptr %24, ptr %5, align 8
  %25 = load i8, ptr %23, align 1
  store i8 %25, ptr %10, align 1
  br label %26

26:                                               ; preds = %22, %16
  %27 = load i32, ptr %7, align 4
  %28 = icmp ne i32 %27, 0
  %29 = select i1 %28, i32 15, i32 0
  store i32 %29, ptr %9, align 4
  store i32 15, ptr %8, align 4
  br label %30

30:                                               ; preds = %129, %26
  %31 = load i32, ptr %8, align 4
  %32 = icmp sge i32 %31, 0
  br i1 %32, label %33, label %132

33:                                               ; preds = %30
  %34 = load i32, ptr %11, align 4
  %35 = icmp ne i32 %34, 0
  br i1 %35, label %36, label %56

36:                                               ; preds = %33
  %37 = load ptr, ptr @g_ascii_table, align 8
  %38 = load i8, ptr %10, align 1
  %39 = zext i8 %38 to i64
  %40 = getelementptr i16, ptr %37, i64 %39
  %41 = load i16, ptr %40, align 2
  %42 = zext i16 %41 to i32
  %43 = and i32 %42, 64
  %44 = icmp ne i32 %43, 0
  br i1 %44, label %45, label %54

45:                                               ; preds = %36
  %46 = load i8, ptr %10, align 1
  %47 = load ptr, ptr %6, align 8
  %48 = load i32, ptr %9, align 4
  %49 = sext i32 %48 to i64
  %50 = getelementptr i8, ptr %47, i64 %49
  store i8 %46, ptr %50, align 1
  %51 = load ptr, ptr %5, align 8
  %52 = getelementptr i8, ptr %51, i32 1
  store ptr %52, ptr %5, align 8
  %53 = load i8, ptr %51, align 1
  store i8 %53, ptr %10, align 1
  br label %55

54:                                               ; preds = %36
  store i32 0, ptr %4, align 4
  br label %133

55:                                               ; preds = %45
  br label %119

56:                                               ; preds = %33
  %57 = load i8, ptr %10, align 1
  %58 = sext i8 %57 to i32
  %59 = icmp eq i32 %58, 58
  br i1 %59, label %68, label %60

60:                                               ; preds = %56
  %61 = load i8, ptr %10, align 1
  %62 = sext i8 %61 to i32
  %63 = icmp eq i32 %62, 45
  br i1 %63, label %68, label %64

64:                                               ; preds = %60
  %65 = load i8, ptr %10, align 1
  %66 = sext i8 %65 to i32
  %67 = icmp eq i32 %66, 32
  br i1 %67, label %68, label %72

68:                                               ; preds = %64, %60, %56
  %69 = load ptr, ptr %5, align 8
  %70 = getelementptr i8, ptr %69, i32 1
  store ptr %70, ptr %5, align 8
  %71 = load i8, ptr %69, align 1
  store i8 %71, ptr %10, align 1
  br label %72

72:                                               ; preds = %68, %64
  %73 = load ptr, ptr @g_ascii_table, align 8
  %74 = load i8, ptr %10, align 1
  %75 = zext i8 %74 to i64
  %76 = getelementptr i16, ptr %73, i64 %75
  %77 = load i16, ptr %76, align 2
  %78 = zext i16 %77 to i32
  %79 = and i32 %78, 1024
  %80 = icmp ne i32 %79, 0
  br i1 %80, label %81, label %90

81:                                               ; preds = %72
  %82 = load i8, ptr %10, align 1
  %83 = call i32 @g_ascii_xdigit_value(i8 noundef signext %82) #11
  %84 = shl i32 %83, 4
  %85 = trunc i32 %84 to i8
  %86 = load ptr, ptr %6, align 8
  %87 = load i32, ptr %9, align 4
  %88 = sext i32 %87 to i64
  %89 = getelementptr i8, ptr %86, i64 %88
  store i8 %85, ptr %89, align 1
  br label %91

90:                                               ; preds = %72
  store i32 0, ptr %4, align 4
  br label %133

91:                                               ; preds = %81
  %92 = load ptr, ptr %5, align 8
  %93 = getelementptr i8, ptr %92, i32 1
  store ptr %93, ptr %5, align 8
  %94 = load i8, ptr %92, align 1
  store i8 %94, ptr %10, align 1
  %95 = load ptr, ptr @g_ascii_table, align 8
  %96 = load i8, ptr %10, align 1
  %97 = zext i8 %96 to i64
  %98 = getelementptr i16, ptr %95, i64 %97
  %99 = load i16, ptr %98, align 2
  %100 = zext i16 %99 to i32
  %101 = and i32 %100, 1024
  %102 = icmp ne i32 %101, 0
  br i1 %102, label %103, label %114

103:                                              ; preds = %91
  %104 = load i8, ptr %10, align 1
  %105 = call i32 @g_ascii_xdigit_value(i8 noundef signext %104) #11
  %106 = load ptr, ptr %6, align 8
  %107 = load i32, ptr %9, align 4
  %108 = sext i32 %107 to i64
  %109 = getelementptr i8, ptr %106, i64 %108
  %110 = load i8, ptr %109, align 1
  %111 = zext i8 %110 to i32
  %112 = or i32 %111, %105
  %113 = trunc i32 %112 to i8
  store i8 %113, ptr %109, align 1
  br label %115

114:                                              ; preds = %91
  store i32 0, ptr %4, align 4
  br label %133

115:                                              ; preds = %103
  %116 = load ptr, ptr %5, align 8
  %117 = getelementptr i8, ptr %116, i32 1
  store ptr %117, ptr %5, align 8
  %118 = load i8, ptr %116, align 1
  store i8 %118, ptr %10, align 1
  br label %119

119:                                              ; preds = %115, %55
  %120 = load i32, ptr %7, align 4
  %121 = icmp ne i32 %120, 0
  br i1 %121, label %122, label %125

122:                                              ; preds = %119
  %123 = load i32, ptr %9, align 4
  %124 = add i32 %123, -1
  store i32 %124, ptr %9, align 4
  br label %128

125:                                              ; preds = %119
  %126 = load i32, ptr %9, align 4
  %127 = add i32 %126, 1
  store i32 %127, ptr %9, align 4
  br label %128

128:                                              ; preds = %125, %122
  br label %129

129:                                              ; preds = %128
  %130 = load i32, ptr %8, align 4
  %131 = add i32 %130, -1
  store i32 %131, ptr %8, align 4
  br label %30, !llvm.loop !15

132:                                              ; preds = %30
  store i32 1, ptr %4, align 4
  br label %133

133:                                              ; preds = %132, %114, %90, %54, %15
  %134 = load i32, ptr %4, align 4
  ret i32 %134
}