; Function Attrs: nofree nosync nounwind memory(read, argmem: readwrite, inaccessiblemem: none) uwtable
define internal fastcc range(i32 0, 2) i32 @zbee_security_parse_key(ptr noundef readonly %0, ptr noundef nonnull writeonly captures(none) initializes((0, 16)) %1, i32 noundef range(i32 0, 256) %2) unnamed_addr #7 {
  tail call void @llvm.memset.p0.i64(ptr noundef nonnull align 1 dereferenceable(16) %1, i8 0, i64 16, i1 false)
  %4 = icmp eq ptr %0, null
  br i1 %4, label %.loopexit, label %5

5:                                                ; preds = %3
  %6 = getelementptr i8, ptr %0, i64 1
  %7 = load i8, ptr %0, align 1
  %.not46 = icmp eq i8 %7, 34
  br i1 %.not46, label %.split.us.preheader, label %.split.preheader

.split.preheader:                                 ; preds = %5
  %.not = icmp eq i32 %2, 0
  %8 = select i1 %.not, i64 0, i64 15
  %9 = load ptr, ptr @g_ascii_table, align 8
  %.137.v = select i1 %.not, i64 1, i64 -1
  br label %.split

.split.us.preheader:                              ; preds = %5
  %10 = getelementptr i8, ptr %0, i64 2
  %.not62 = icmp eq i32 %2, 0
  %11 = select i1 %.not62, i64 0, i64 15
  %12 = load ptr, ptr @g_ascii_table, align 8
  %.137.v63 = select i1 %.not62, i64 1, i64 -1
  br label %.split.us

.split.us:                                        ; preds = %.split.us.preheader, %17
  %indvars.iv56 = phi i64 [ %11, %.split.us.preheader ], [ %indvars.iv.next57, %17 ]
  %.153.us.in = phi ptr [ %6, %.split.us.preheader ], [ %.14150.us, %17 ]
  %.03851.us = phi i32 [ 15, %.split.us.preheader ], [ %20, %17 ]
  %.14150.us = phi ptr [ %10, %.split.us.preheader ], [ %19, %17 ]
  %.153.us = load i8, ptr %.153.us.in, align 1
  %13 = zext i8 %.153.us to i64
  %14 = getelementptr i16, ptr %12, i64 %13
  %15 = load i16, ptr %14, align 2
  %16 = and i16 %15, 64
  %.not49.us = icmp eq i16 %16, 0
  br i1 %.not49.us, label %.loopexit, label %17

17:                                               ; preds = %.split.us
  %18 = getelementptr i8, ptr %1, i64 %indvars.iv56
  store i8 %.153.us, ptr %18, align 1
  %19 = getelementptr i8, ptr %.14150.us, i64 1
  %20 = add nsw i32 %.03851.us, -1
  %.not59 = icmp eq i32 %.03851.us, 0
  %indvars.iv.next57 = add i64 %indvars.iv56, %.137.v63
  br i1 %.not59, label %.loopexit, label %.split.us, !llvm.loop !14

.split:                                           ; preds = %.split.preheader, %38
  %indvars.iv = phi i64 [ %8, %.split.preheader ], [ %indvars.iv.next, %38 ]
  %.153 = phi i8 [ %7, %.split.preheader ], [ %.2, %38 ]
  %.03851 = phi i32 [ 15, %.split.preheader ], [ %44, %38 ]
  %.14150 = phi ptr [ %6, %.split.preheader ], [ %43, %38 ]
  switch i8 %.153, label %24 [
    i8 58, label %21
    i8 45, label %21
    i8 32, label %21
  ]

21:                                               ; preds = %.split, %.split, %.split
  %22 = getelementptr i8, ptr %.14150, i64 1
  %23 = load i8, ptr %.14150, align 1
  br label %24

24:                                               ; preds = %.split, %21
  %.343 = phi ptr [ %22, %21 ], [ %.14150, %.split ]
  %.3 = phi i8 [ %23, %21 ], [ %.153, %.split ]
  %25 = zext i8 %.3 to i64
  %26 = getelementptr i16, ptr %9, i64 %25
  %27 = load i16, ptr %26, align 2
  %28 = and i16 %27, 1024
  %.not47 = icmp eq i16 %28, 0
  br i1 %.not47, label %.loopexit, label %29

29:                                               ; preds = %24
  %30 = tail call i32 @g_ascii_xdigit_value(i8 noundef signext %.3) #15
  %.tr = trunc i32 %30 to i8
  %31 = shl i8 %.tr, 4
  %32 = getelementptr i8, ptr %1, i64 %indvars.iv
  store i8 %31, ptr %32, align 1
  %33 = load i8, ptr %.343, align 1
  %34 = zext i8 %33 to i64
  %35 = getelementptr i16, ptr %9, i64 %34
  %36 = load i16, ptr %35, align 2
  %37 = and i16 %36, 1024
  %.not48 = icmp eq i16 %37, 0
  br i1 %.not48, label %.loopexit, label %38

38:                                               ; preds = %29
  %39 = getelementptr i8, ptr %.343, i64 1
  %40 = tail call i32 @g_ascii_xdigit_value(i8 noundef signext %33) #15
  %41 = trunc i32 %40 to i8
  %42 = or i8 %31, %41
  store i8 %42, ptr %32, align 1
  %43 = getelementptr i8, ptr %.343, i64 2
  %.2 = load i8, ptr %39, align 1
  %44 = add nsw i32 %.03851, -1
  %.not58 = icmp eq i32 %.03851, 0
  %indvars.iv.next = add i64 %indvars.iv, %.137.v
  br i1 %.not58, label %.loopexit, label %.split, !llvm.loop !14

.loopexit:                                        ; preds = %24, %29, %38, %17, %.split.us, %3
  %.039 = phi i32 [ 0, %3 ], [ 1, %17 ], [ 0, %.split.us ], [ 1, %38 ], [ 0, %29 ], [ 0, %24 ]
  ret i32 %.039
}